; Function Attrs: mustprogress nofree norecurse nosync nounwind willreturn memory(argmem: read) uwtable
define noundef i64 @_ZNK5faiss15Level1Quantizer16coarse_code_sizeEv(ptr noundef nonnull readonly align 8 captures(none) dereferenceable(80) %0) local_unnamed_addr #4 align 2 {
  %2 = getelementptr inbounds nuw i8, ptr %0, i64 8
  %3 = load i64, ptr %2, align 8, !tbaa !99
  %4 = add i64 %3, -1
  %.not5 = icmp eq i64 %4, 0
  br i1 %.not5, label %._crit_edge, label %.lr.ph

.lr.ph:                                           ; preds = %1, %.lr.ph
  %.07 = phi i64 [ %5, %.lr.ph ], [ 0, %1 ]
  %.046 = phi i64 [ %6, %.lr.ph ], [ %4, %1 ]
  %5 = add nuw nsw i64 %.07, 1
  %6 = lshr i64 %.046, 8
  %.not = icmp ult i64 %.046, 256
  br i1 %.not, label %._crit_edge, label %.lr.ph, !llvm.loop !102

._crit_edge:                                      ; preds = %.lr.ph, %1
  %.0.lcssa = phi i64 [ 0, %1 ], [ %5, %.lr.ph ]
  ret i64 %.0.lcssa
}